target datalayout = "e-m:e-p270:32:32-p271:32:32-p272:64:64-i64:64-i128:128-f80:128-n8:16:32:64-S128"
target triple = "x86_64-pc-linux-gnu"

@offset = internal global [5 x i32] zeroinitializer, align 16
@bit_grid = internal global ptr null, align 8

; Function Attrs: nounwind uwtable
define internal void @_set_box_in_grid(i32 noundef %0, i32 noundef %1, ptr noundef %2, ptr noundef %3, i1 noundef zeroext %4, i32 noundef %5) #0 {
  %7 = alloca i32, align 4
  %8 = alloca i32, align 4
  %9 = alloca ptr, align 8
  %10 = alloca ptr, align 8
  %11 = alloca i8, align 1
  %12 = alloca i32, align 4
  %13 = alloca i32, align 4
  %14 = alloca i32, align 4
  store i32 %0, ptr %7, align 4
  store i32 %1, ptr %8, align 4
  store ptr %2, ptr %9, align 8
  store ptr %3, ptr %10, align 8
  %15 = zext i1 %4 to i8
  store i8 %15, ptr %11, align 1
  store i32 %5, ptr %12, align 4
  call void @llvm.lifetime.start.p0(i64 4, ptr %13) #13
  call void @llvm.lifetime.start.p0(i64 4, ptr %14) #13
  %16 = load i32, ptr %8, align 4
  store i32 %16, ptr %14, align 4
  %17 = load ptr, ptr %9, align 8
  %18 = load i32, ptr %7, align 4
  %19 = sext i32 %18 to i64
  %20 = getelementptr inbounds i32, ptr %17, i64 %19
  %21 = load i32, ptr %20, align 4
  store i32 %21, ptr %13, align 4
  br label %22

22:                                               ; preds = %65, %6
  %23 = load i32, ptr %13, align 4
  %24 = load ptr, ptr %10, align 8
  %25 = load i32, ptr %7, align 4
  %26 = sext i32 %25 to i64
  %27 = getelementptr inbounds i32, ptr %24, i64 %26
  %28 = load i32, ptr %27, align 4
  %29 = icmp sle i32 %23, %28
  br i1 %29, label %30, label %68

30:                                               ; preds = %22
  %31 = load i32, ptr %14, align 4
  %32 = load i32, ptr %13, align 4
  %33 = load i32, ptr %7, align 4
  %34 = sext i32 %33 to i64
  %35 = getelementptr inbounds [5 x i32], ptr @offset, i64 0, i64 %34
  %36 = load i32, ptr %35, align 4
  %37 = mul nsw i32 %32, %36
  %38 = add nsw i32 %31, %37
  store i32 %38, ptr %8, align 4
  %39 = load i32, ptr %7, align 4
  %40 = load i32, ptr %12, align 4
  %41 = sub nsw i32 %40, 1
  %42 = icmp eq i32 %39, %41
  br i1 %42, label %43, label %55

43:                                               ; preds = %30
  %44 = load i8, ptr %11, align 1, !range !12, !noundef !13
  %45 = trunc i8 %44 to i1
  br i1 %45, label %46, label %50

46:                                               ; preds = %43
  %47 = load ptr, ptr @bit_grid, align 8
  %48 = load i32, ptr %8, align 4
  %49 = sext i32 %48 to i64
  call void @bit_set(ptr noundef %47, i64 noundef %49)
  br label %54

50:                                               ; preds = %43
  %51 = load ptr, ptr @bit_grid, align 8
  %52 = load i32, ptr %8, align 4
  %53 = sext i32 %52 to i64
  call void @bit_clear(ptr noundef %51, i64 noundef %53)
  br label %54

54:                                               ; preds = %50, %46
  br label %64

55:                                               ; preds = %30
  %56 = load i32, ptr %7, align 4
  %57 = add nsw i32 %56, 1
  %58 = load i32, ptr %8, align 4
  %59 = load ptr, ptr %9, align 8
  %60 = load ptr, ptr %10, align 8
  %61 = load i8, ptr %11, align 1, !range !12, !noundef !13
  %62 = trunc i8 %61 to i1
  %63 = load i32, ptr %12, align 4
  call void @_set_box_in_grid(i32 noundef %57, i32 noundef %58, ptr noundef %59, ptr noundef %60, i1 noundef zeroext %62, i32 noundef %63)
  br label %64

64:                                               ; preds = %55, %54
  br label %65

65:                                               ; preds = %64
  %66 = load i32, ptr %13, align 4
  %67 = add nsw i32 %66, 1
  store i32 %67, ptr %13, align 4
  br label %22, !llvm.loop !80

68:                                               ; preds = %22
  call void @llvm.lifetime.end.p0(i64 4, ptr %14) #13
  call void @llvm.lifetime.end.p0(i64 4, ptr %13) #13
  ret void
}