; Function Attrs: nounwind uwtable
define internal fastcc void @_set_box_in_grid(i32 noundef %0, i32 noundef %1, ptr noundef nonnull readonly captures(none) %2, ptr noundef nonnull readonly captures(none) %3, i1 noundef zeroext %4, i32 noundef range(i32 2, -2147483648) %5) unnamed_addr #0 {
  %7 = sext i32 %0 to i64
  %8 = getelementptr inbounds i32, ptr %2, i64 %7
  %9 = load i32, ptr %8, align 4
  %10 = getelementptr inbounds i32, ptr %3, i64 %7
  %11 = load i32, ptr %10, align 4
  %.not21 = icmp sgt i32 %9, %11
  br i1 %.not21, label %._crit_edge, label %.lr.ph

.lr.ph:                                           ; preds = %6
  %12 = getelementptr inbounds [5 x i32], ptr @offset, i64 0, i64 %7
  %13 = add nsw i32 %5, -1
  %14 = icmp eq i32 %0, %13
  %15 = add nsw i32 %0, 1
  br i1 %14, label %.lr.ph.split.us, label %.lr.ph.split

.lr.ph.split.us:                                  ; preds = %.lr.ph
  br i1 %4, label %.lr.ph.split.us.split.us, label %.lr.ph.split.us.split

.lr.ph.split.us.split.us:                         ; preds = %.lr.ph.split.us, %.lr.ph.split.us.split.us
  %.022.us.us = phi i32 [ %21, %.lr.ph.split.us.split.us ], [ %9, %.lr.ph.split.us ]
  %16 = load i32, ptr %12, align 4
  %17 = mul nsw i32 %16, %.022.us.us
  %18 = add nsw i32 %17, %1
  %19 = load ptr, ptr @bit_grid, align 8
  %20 = sext i32 %18 to i64
  tail call void @bit_set(ptr noundef %19, i64 noundef %20) #22
  %21 = add nsw i32 %.022.us.us, 1
  %22 = load i32, ptr %10, align 4
  %.not.us.us.not = icmp slt i32 %.022.us.us, %22
  br i1 %.not.us.us.not, label %.lr.ph.split.us.split.us, label %._crit_edge, !llvm.loop !78

.lr.ph.split.us.split:                            ; preds = %.lr.ph.split.us, %.lr.ph.split.us.split
  %.022.us = phi i32 [ %28, %.lr.ph.split.us.split ], [ %9, %.lr.ph.split.us ]
  %23 = load i32, ptr %12, align 4
  %24 = mul nsw i32 %23, %.022.us
  %25 = add nsw i32 %24, %1
  %26 = load ptr, ptr @bit_grid, align 8
  %27 = sext i32 %25 to i64
  tail call void @bit_clear(ptr noundef %26, i64 noundef %27) #22
  %28 = add nsw i32 %.022.us, 1
  %29 = load i32, ptr %10, align 4
  %.not.us.not = icmp slt i32 %.022.us, %29
  br i1 %.not.us.not, label %.lr.ph.split.us.split, label %._crit_edge, !llvm.loop !78

.lr.ph.split:                                     ; preds = %.lr.ph, %.lr.ph.split
  %.022 = phi i32 [ %33, %.lr.ph.split ], [ %9, %.lr.ph ]
  %30 = load i32, ptr %12, align 4
  %31 = mul nsw i32 %30, %.022
  %32 = add nsw i32 %31, %1
  tail call fastcc void @_set_box_in_grid(i32 noundef %15, i32 noundef %32, ptr noundef %2, ptr noundef %3, i1 noundef zeroext %4, i32 noundef %5)
  %33 = add nsw i32 %.022, 1
  %34 = load i32, ptr %10, align 4
  %.not.not = icmp slt i32 %.022, %34
  br i1 %.not.not, label %.lr.ph.split, label %._crit_edge, !llvm.loop !78

._crit_edge:                                      ; preds = %.lr.ph.split, %.lr.ph.split.us.split, %.lr.ph.split.us.split.us, %6
  ret void
}